ARM GAS  C:\Users\rosto\AppData\Local\Temp\ccGcsgmf.s 			page 1


   1              		.cpu cortex-m0
   2              		.arch armv6s-m
   3              		.fpu softvfp
   4              		.eabi_attribute 20, 1
   5              		.eabi_attribute 21, 1
   6              		.eabi_attribute 23, 3
   7              		.eabi_attribute 24, 1
   8              		.eabi_attribute 25, 1
   9              		.eabi_attribute 26, 1
  10              		.eabi_attribute 30, 1
  11              		.eabi_attribute 34, 0
  12              		.eabi_attribute 18, 4
  13              		.file	"adc.c"
  14              		.text
  15              	.Ltext0:
  16              		.cfi_sections	.debug_frame
  17              		.file 1 "Core/Src/adc.c"
  18              		.section	.text.MX_ADC_Init,"ax",%progbits
  19              		.align	1
  20              		.global	MX_ADC_Init
  21              		.syntax unified
  22              		.code	16
  23              		.thumb_func
  25              	MX_ADC_Init:
  26              	.LFB40:
   1:Core/Src/adc.c **** /* USER CODE BEGIN Header */
   2:Core/Src/adc.c **** /**
   3:Core/Src/adc.c ****   ******************************************************************************
   4:Core/Src/adc.c ****   * @file    adc.c
   5:Core/Src/adc.c ****   * @brief   This file provides code for the configuration
   6:Core/Src/adc.c ****   *          of the ADC instances.
   7:Core/Src/adc.c ****   ******************************************************************************
   8:Core/Src/adc.c ****   * @attention
   9:Core/Src/adc.c ****   *
  10:Core/Src/adc.c ****   * Copyright (c) 2024 STMicroelectronics.
  11:Core/Src/adc.c ****   * All rights reserved.
  12:Core/Src/adc.c ****   *
  13:Core/Src/adc.c ****   * This software is licensed under terms that can be found in the LICENSE file
  14:Core/Src/adc.c ****   * in the root directory of this software component.
  15:Core/Src/adc.c ****   * If no LICENSE file comes with this software, it is provided AS-IS.
  16:Core/Src/adc.c ****   *
  17:Core/Src/adc.c ****   ******************************************************************************
  18:Core/Src/adc.c ****   */
  19:Core/Src/adc.c **** /* USER CODE END Header */
  20:Core/Src/adc.c **** /* Includes ------------------------------------------------------------------*/
  21:Core/Src/adc.c **** #include "adc.h"
  22:Core/Src/adc.c **** 
  23:Core/Src/adc.c **** /* USER CODE BEGIN 0 */
  24:Core/Src/adc.c **** 
  25:Core/Src/adc.c **** /* USER CODE END 0 */
  26:Core/Src/adc.c **** 
  27:Core/Src/adc.c **** ADC_HandleTypeDef hadc;
  28:Core/Src/adc.c **** 
  29:Core/Src/adc.c **** /* ADC init function */
  30:Core/Src/adc.c **** void MX_ADC_Init(void)
  31:Core/Src/adc.c **** {
  27              		.loc 1 31 1 view -0
ARM GAS  C:\Users\rosto\AppData\Local\Temp\ccGcsgmf.s 			page 2


  28              		.cfi_startproc
  29              		@ args = 0, pretend = 0, frame = 16
  30              		@ frame_needed = 0, uses_anonymous_args = 0
  31 0000 00B5     		push	{lr}
  32              		.cfi_def_cfa_offset 4
  33              		.cfi_offset 14, -4
  34 0002 85B0     		sub	sp, sp, #20
  35              		.cfi_def_cfa_offset 24
  32:Core/Src/adc.c **** 
  33:Core/Src/adc.c ****   /* USER CODE BEGIN ADC_Init 0 */
  34:Core/Src/adc.c **** 
  35:Core/Src/adc.c ****   /* USER CODE END ADC_Init 0 */
  36:Core/Src/adc.c **** 
  37:Core/Src/adc.c ****   ADC_ChannelConfTypeDef sConfig = {0};
  36              		.loc 1 37 3 view .LVU1
  37              		.loc 1 37 26 is_stmt 0 view .LVU2
  38 0004 0C22     		movs	r2, #12
  39 0006 0021     		movs	r1, #0
  40 0008 01A8     		add	r0, sp, #4
  41 000a FFF7FEFF 		bl	memset
  42              	.LVL0:
  38:Core/Src/adc.c **** 
  39:Core/Src/adc.c ****   /* USER CODE BEGIN ADC_Init 1 */
  40:Core/Src/adc.c **** 
  41:Core/Src/adc.c ****   /* USER CODE END ADC_Init 1 */
  42:Core/Src/adc.c **** 
  43:Core/Src/adc.c ****   /** Configure the global features of the ADC (Clock, Resolution, Data Alignment and number of con
  44:Core/Src/adc.c ****   */
  45:Core/Src/adc.c ****   hadc.Instance = ADC1;
  43              		.loc 1 45 3 is_stmt 1 view .LVU3
  44              		.loc 1 45 17 is_stmt 0 view .LVU4
  45 000e 2348     		ldr	r0, .L10
  46 0010 234B     		ldr	r3, .L10+4
  47 0012 0360     		str	r3, [r0]
  46:Core/Src/adc.c ****   hadc.Init.ClockPrescaler = ADC_CLOCK_ASYNC_DIV1;
  48              		.loc 1 46 3 is_stmt 1 view .LVU5
  49              		.loc 1 46 28 is_stmt 0 view .LVU6
  50 0014 0023     		movs	r3, #0
  51 0016 4360     		str	r3, [r0, #4]
  47:Core/Src/adc.c ****   hadc.Init.Resolution = ADC_RESOLUTION_12B;
  52              		.loc 1 47 3 is_stmt 1 view .LVU7
  53              		.loc 1 47 24 is_stmt 0 view .LVU8
  54 0018 8360     		str	r3, [r0, #8]
  48:Core/Src/adc.c ****   hadc.Init.DataAlign = ADC_DATAALIGN_RIGHT;
  55              		.loc 1 48 3 is_stmt 1 view .LVU9
  56              		.loc 1 48 23 is_stmt 0 view .LVU10
  57 001a C360     		str	r3, [r0, #12]
  49:Core/Src/adc.c ****   hadc.Init.ScanConvMode = ADC_SCAN_DIRECTION_FORWARD;
  58              		.loc 1 49 3 is_stmt 1 view .LVU11
  59              		.loc 1 49 26 is_stmt 0 view .LVU12
  60 001c 0122     		movs	r2, #1
  61 001e 0261     		str	r2, [r0, #16]
  50:Core/Src/adc.c ****   hadc.Init.EOCSelection = ADC_EOC_SINGLE_CONV;
  62              		.loc 1 50 3 is_stmt 1 view .LVU13
  63              		.loc 1 50 26 is_stmt 0 view .LVU14
  64 0020 0421     		movs	r1, #4
  65 0022 4161     		str	r1, [r0, #20]
ARM GAS  C:\Users\rosto\AppData\Local\Temp\ccGcsgmf.s 			page 3


  51:Core/Src/adc.c ****   hadc.Init.LowPowerAutoWait = DISABLE;
  66              		.loc 1 51 3 is_stmt 1 view .LVU15
  67              		.loc 1 51 30 is_stmt 0 view .LVU16
  68 0024 0376     		strb	r3, [r0, #24]
  52:Core/Src/adc.c ****   hadc.Init.LowPowerAutoPowerOff = DISABLE;
  69              		.loc 1 52 3 is_stmt 1 view .LVU17
  70              		.loc 1 52 34 is_stmt 0 view .LVU18
  71 0026 4376     		strb	r3, [r0, #25]
  53:Core/Src/adc.c ****   hadc.Init.ContinuousConvMode = DISABLE;
  72              		.loc 1 53 3 is_stmt 1 view .LVU19
  73              		.loc 1 53 32 is_stmt 0 view .LVU20
  74 0028 8376     		strb	r3, [r0, #26]
  54:Core/Src/adc.c ****   hadc.Init.DiscontinuousConvMode = ENABLE;
  75              		.loc 1 54 3 is_stmt 1 view .LVU21
  76              		.loc 1 54 35 is_stmt 0 view .LVU22
  77 002a C276     		strb	r2, [r0, #27]
  55:Core/Src/adc.c ****   hadc.Init.ExternalTrigConv = ADC_SOFTWARE_START;
  78              		.loc 1 55 3 is_stmt 1 view .LVU23
  79              		.loc 1 55 30 is_stmt 0 view .LVU24
  80 002c C222     		movs	r2, #194
  81 002e FF32     		adds	r2, r2, #255
  82 0030 C261     		str	r2, [r0, #28]
  56:Core/Src/adc.c ****   hadc.Init.ExternalTrigConvEdge = ADC_EXTERNALTRIGCONVEDGE_NONE;
  83              		.loc 1 56 3 is_stmt 1 view .LVU25
  84              		.loc 1 56 34 is_stmt 0 view .LVU26
  85 0032 0362     		str	r3, [r0, #32]
  57:Core/Src/adc.c ****   hadc.Init.DMAContinuousRequests = DISABLE;
  86              		.loc 1 57 3 is_stmt 1 view .LVU27
  87              		.loc 1 57 35 is_stmt 0 view .LVU28
  88 0034 9E3A     		subs	r2, r2, #158
  89 0036 FF3A     		subs	r2, r2, #255
  90 0038 8354     		strb	r3, [r0, r2]
  58:Core/Src/adc.c ****   hadc.Init.Overrun = ADC_OVR_DATA_OVERWRITTEN;
  91              		.loc 1 58 3 is_stmt 1 view .LVU29
  92              		.loc 1 58 21 is_stmt 0 view .LVU30
  93 003a 8362     		str	r3, [r0, #40]
  59:Core/Src/adc.c ****   if (HAL_ADC_Init(&hadc) != HAL_OK)
  94              		.loc 1 59 3 is_stmt 1 view .LVU31
  95              		.loc 1 59 7 is_stmt 0 view .LVU32
  96 003c FFF7FEFF 		bl	HAL_ADC_Init
  97              	.LVL1:
  98              		.loc 1 59 6 view .LVU33
  99 0040 0028     		cmp	r0, #0
 100 0042 1FD1     		bne	.L6
 101              	.L2:
  60:Core/Src/adc.c ****   {
  61:Core/Src/adc.c ****     Error_Handler();
  62:Core/Src/adc.c ****   }
  63:Core/Src/adc.c **** 
  64:Core/Src/adc.c ****   /** Configure for the selected ADC regular channel to be converted.
  65:Core/Src/adc.c ****   */
  66:Core/Src/adc.c ****   sConfig.Channel = ADC_CHANNEL_3;
 102              		.loc 1 66 3 is_stmt 1 view .LVU34
 103              		.loc 1 66 19 is_stmt 0 view .LVU35
 104 0044 0323     		movs	r3, #3
 105 0046 0193     		str	r3, [sp, #4]
  67:Core/Src/adc.c ****   sConfig.Rank = ADC_RANK_CHANNEL_NUMBER;
ARM GAS  C:\Users\rosto\AppData\Local\Temp\ccGcsgmf.s 			page 4


 106              		.loc 1 67 3 is_stmt 1 view .LVU36
 107              		.loc 1 67 16 is_stmt 0 view .LVU37
 108 0048 8023     		movs	r3, #128
 109 004a 5B01     		lsls	r3, r3, #5
 110 004c 0293     		str	r3, [sp, #8]
  68:Core/Src/adc.c ****   sConfig.SamplingTime = ADC_SAMPLETIME_1CYCLE_5;
 111              		.loc 1 68 3 is_stmt 1 view .LVU38
 112              		.loc 1 68 24 is_stmt 0 view .LVU39
 113 004e 8023     		movs	r3, #128
 114 0050 5B05     		lsls	r3, r3, #21
 115 0052 0393     		str	r3, [sp, #12]
  69:Core/Src/adc.c ****   if (HAL_ADC_ConfigChannel(&hadc, &sConfig) != HAL_OK)
 116              		.loc 1 69 3 is_stmt 1 view .LVU40
 117              		.loc 1 69 7 is_stmt 0 view .LVU41
 118 0054 1148     		ldr	r0, .L10
 119 0056 01A9     		add	r1, sp, #4
 120 0058 FFF7FEFF 		bl	HAL_ADC_ConfigChannel
 121              	.LVL2:
 122              		.loc 1 69 6 view .LVU42
 123 005c 0028     		cmp	r0, #0
 124 005e 14D1     		bne	.L7
 125              	.L3:
  70:Core/Src/adc.c ****   {
  71:Core/Src/adc.c ****     Error_Handler();
  72:Core/Src/adc.c ****   }
  73:Core/Src/adc.c **** 
  74:Core/Src/adc.c ****   /** Configure for the selected ADC regular channel to be converted.
  75:Core/Src/adc.c ****   */
  76:Core/Src/adc.c ****   sConfig.Channel = ADC_CHANNEL_4;
 126              		.loc 1 76 3 is_stmt 1 view .LVU43
 127              		.loc 1 76 19 is_stmt 0 view .LVU44
 128 0060 0423     		movs	r3, #4
 129 0062 0193     		str	r3, [sp, #4]
  77:Core/Src/adc.c ****   if (HAL_ADC_ConfigChannel(&hadc, &sConfig) != HAL_OK)
 130              		.loc 1 77 3 is_stmt 1 view .LVU45
 131              		.loc 1 77 7 is_stmt 0 view .LVU46
 132 0064 0D48     		ldr	r0, .L10
 133 0066 01A9     		add	r1, sp, #4
 134 0068 FFF7FEFF 		bl	HAL_ADC_ConfigChannel
 135              	.LVL3:
 136              		.loc 1 77 6 view .LVU47
 137 006c 0028     		cmp	r0, #0
 138 006e 0FD1     		bne	.L8
 139              	.L4:
  78:Core/Src/adc.c ****   {
  79:Core/Src/adc.c ****     Error_Handler();
  80:Core/Src/adc.c ****   }
  81:Core/Src/adc.c **** 
  82:Core/Src/adc.c ****   /** Configure for the selected ADC regular channel to be converted.
  83:Core/Src/adc.c ****   */
  84:Core/Src/adc.c ****   sConfig.Channel = ADC_CHANNEL_5;
 140              		.loc 1 84 3 is_stmt 1 view .LVU48
 141              		.loc 1 84 19 is_stmt 0 view .LVU49
 142 0070 0523     		movs	r3, #5
 143 0072 0193     		str	r3, [sp, #4]
  85:Core/Src/adc.c ****   if (HAL_ADC_ConfigChannel(&hadc, &sConfig) != HAL_OK)
 144              		.loc 1 85 3 is_stmt 1 view .LVU50
ARM GAS  C:\Users\rosto\AppData\Local\Temp\ccGcsgmf.s 			page 5


 145              		.loc 1 85 7 is_stmt 0 view .LVU51
 146 0074 0948     		ldr	r0, .L10
 147 0076 01A9     		add	r1, sp, #4
 148 0078 FFF7FEFF 		bl	HAL_ADC_ConfigChannel
 149              	.LVL4:
 150              		.loc 1 85 6 view .LVU52
 151 007c 0028     		cmp	r0, #0
 152 007e 0AD1     		bne	.L9
 153              	.L1:
  86:Core/Src/adc.c ****   {
  87:Core/Src/adc.c ****     Error_Handler();
  88:Core/Src/adc.c ****   }
  89:Core/Src/adc.c ****   /* USER CODE BEGIN ADC_Init 2 */
  90:Core/Src/adc.c **** 
  91:Core/Src/adc.c ****   /* USER CODE END ADC_Init 2 */
  92:Core/Src/adc.c **** 
  93:Core/Src/adc.c **** }
 154              		.loc 1 93 1 view .LVU53
 155 0080 05B0     		add	sp, sp, #20
 156              		@ sp needed
 157 0082 00BD     		pop	{pc}
 158              	.L6:
  61:Core/Src/adc.c ****   }
 159              		.loc 1 61 5 is_stmt 1 view .LVU54
 160 0084 FFF7FEFF 		bl	Error_Handler
 161              	.LVL5:
 162 0088 DCE7     		b	.L2
 163              	.L7:
  71:Core/Src/adc.c ****   }
 164              		.loc 1 71 5 view .LVU55
 165 008a FFF7FEFF 		bl	Error_Handler
 166              	.LVL6:
 167 008e E7E7     		b	.L3
 168              	.L8:
  79:Core/Src/adc.c ****   }
 169              		.loc 1 79 5 view .LVU56
 170 0090 FFF7FEFF 		bl	Error_Handler
 171              	.LVL7:
 172 0094 ECE7     		b	.L4
 173              	.L9:
  87:Core/Src/adc.c ****   }
 174              		.loc 1 87 5 view .LVU57
 175 0096 FFF7FEFF 		bl	Error_Handler
 176              	.LVL8:
 177              		.loc 1 93 1 is_stmt 0 view .LVU58
 178 009a F1E7     		b	.L1
 179              	.L11:
 180              		.align	2
 181              	.L10:
 182 009c 00000000 		.word	hadc
 183 00a0 00240140 		.word	1073816576
 184              		.cfi_endproc
 185              	.LFE40:
 187              		.section	.text.HAL_ADC_MspInit,"ax",%progbits
 188              		.align	1
 189              		.global	HAL_ADC_MspInit
 190              		.syntax unified
ARM GAS  C:\Users\rosto\AppData\Local\Temp\ccGcsgmf.s 			page 6


 191              		.code	16
 192              		.thumb_func
 194              	HAL_ADC_MspInit:
 195              	.LVL9:
 196              	.LFB41:
  94:Core/Src/adc.c **** 
  95:Core/Src/adc.c **** void HAL_ADC_MspInit(ADC_HandleTypeDef* adcHandle)
  96:Core/Src/adc.c **** {
 197              		.loc 1 96 1 is_stmt 1 view -0
 198              		.cfi_startproc
 199              		@ args = 0, pretend = 0, frame = 32
 200              		@ frame_needed = 0, uses_anonymous_args = 0
 201              		.loc 1 96 1 is_stmt 0 view .LVU60
 202 0000 10B5     		push	{r4, lr}
 203              		.cfi_def_cfa_offset 8
 204              		.cfi_offset 4, -8
 205              		.cfi_offset 14, -4
 206 0002 88B0     		sub	sp, sp, #32
 207              		.cfi_def_cfa_offset 40
 208 0004 0400     		movs	r4, r0
  97:Core/Src/adc.c **** 
  98:Core/Src/adc.c ****   GPIO_InitTypeDef GPIO_InitStruct = {0};
 209              		.loc 1 98 3 is_stmt 1 view .LVU61
 210              		.loc 1 98 20 is_stmt 0 view .LVU62
 211 0006 1422     		movs	r2, #20
 212 0008 0021     		movs	r1, #0
 213 000a 03A8     		add	r0, sp, #12
 214              	.LVL10:
 215              		.loc 1 98 20 view .LVU63
 216 000c FFF7FEFF 		bl	memset
 217              	.LVL11:
  99:Core/Src/adc.c ****   if(adcHandle->Instance==ADC1)
 218              		.loc 1 99 3 is_stmt 1 view .LVU64
 219              		.loc 1 99 15 is_stmt 0 view .LVU65
 220 0010 2268     		ldr	r2, [r4]
 221              		.loc 1 99 5 view .LVU66
 222 0012 114B     		ldr	r3, .L15
 223 0014 9A42     		cmp	r2, r3
 224 0016 01D0     		beq	.L14
 225              	.L12:
 100:Core/Src/adc.c ****   {
 101:Core/Src/adc.c ****   /* USER CODE BEGIN ADC1_MspInit 0 */
 102:Core/Src/adc.c **** 
 103:Core/Src/adc.c ****   /* USER CODE END ADC1_MspInit 0 */
 104:Core/Src/adc.c ****     /* ADC1 clock enable */
 105:Core/Src/adc.c ****     __HAL_RCC_ADC1_CLK_ENABLE();
 106:Core/Src/adc.c **** 
 107:Core/Src/adc.c ****     __HAL_RCC_GPIOA_CLK_ENABLE();
 108:Core/Src/adc.c ****     /**ADC GPIO Configuration
 109:Core/Src/adc.c ****     PA3     ------> ADC_IN3
 110:Core/Src/adc.c ****     PA4     ------> ADC_IN4
 111:Core/Src/adc.c ****     PA5     ------> ADC_IN5
 112:Core/Src/adc.c ****     */
 113:Core/Src/adc.c ****     GPIO_InitStruct.Pin = GPIO_PIN_3|GPIO_PIN_4|GPIO_PIN_5;
 114:Core/Src/adc.c ****     GPIO_InitStruct.Mode = GPIO_MODE_ANALOG;
 115:Core/Src/adc.c ****     GPIO_InitStruct.Pull = GPIO_NOPULL;
 116:Core/Src/adc.c ****     HAL_GPIO_Init(GPIOA, &GPIO_InitStruct);
ARM GAS  C:\Users\rosto\AppData\Local\Temp\ccGcsgmf.s 			page 7


 117:Core/Src/adc.c **** 
 118:Core/Src/adc.c ****   /* USER CODE BEGIN ADC1_MspInit 1 */
 119:Core/Src/adc.c **** 
 120:Core/Src/adc.c ****   /* USER CODE END ADC1_MspInit 1 */
 121:Core/Src/adc.c ****   }
 122:Core/Src/adc.c **** }
 226              		.loc 1 122 1 view .LVU67
 227 0018 08B0     		add	sp, sp, #32
 228              		@ sp needed
 229              	.LVL12:
 230              		.loc 1 122 1 view .LVU68
 231 001a 10BD     		pop	{r4, pc}
 232              	.LVL13:
 233              	.L14:
 105:Core/Src/adc.c **** 
 234              		.loc 1 105 5 is_stmt 1 view .LVU69
 235              	.LBB2:
 105:Core/Src/adc.c **** 
 236              		.loc 1 105 5 view .LVU70
 105:Core/Src/adc.c **** 
 237              		.loc 1 105 5 view .LVU71
 238 001c 0F4B     		ldr	r3, .L15+4
 239 001e 9A69     		ldr	r2, [r3, #24]
 240 0020 8021     		movs	r1, #128
 241 0022 8900     		lsls	r1, r1, #2
 242 0024 0A43     		orrs	r2, r1
 243 0026 9A61     		str	r2, [r3, #24]
 105:Core/Src/adc.c **** 
 244              		.loc 1 105 5 view .LVU72
 245 0028 9A69     		ldr	r2, [r3, #24]
 246 002a 0A40     		ands	r2, r1
 247 002c 0192     		str	r2, [sp, #4]
 105:Core/Src/adc.c **** 
 248              		.loc 1 105 5 view .LVU73
 249 002e 019A     		ldr	r2, [sp, #4]
 250              	.LBE2:
 105:Core/Src/adc.c **** 
 251              		.loc 1 105 5 view .LVU74
 107:Core/Src/adc.c ****     /**ADC GPIO Configuration
 252              		.loc 1 107 5 view .LVU75
 253              	.LBB3:
 107:Core/Src/adc.c ****     /**ADC GPIO Configuration
 254              		.loc 1 107 5 view .LVU76
 107:Core/Src/adc.c ****     /**ADC GPIO Configuration
 255              		.loc 1 107 5 view .LVU77
 256 0030 5A69     		ldr	r2, [r3, #20]
 257 0032 8021     		movs	r1, #128
 258 0034 8902     		lsls	r1, r1, #10
 259 0036 0A43     		orrs	r2, r1
 260 0038 5A61     		str	r2, [r3, #20]
 107:Core/Src/adc.c ****     /**ADC GPIO Configuration
 261              		.loc 1 107 5 view .LVU78
 262 003a 5B69     		ldr	r3, [r3, #20]
 263 003c 0B40     		ands	r3, r1
 264 003e 0293     		str	r3, [sp, #8]
 107:Core/Src/adc.c ****     /**ADC GPIO Configuration
 265              		.loc 1 107 5 view .LVU79
ARM GAS  C:\Users\rosto\AppData\Local\Temp\ccGcsgmf.s 			page 8


 266 0040 029B     		ldr	r3, [sp, #8]
 267              	.LBE3:
 107:Core/Src/adc.c ****     /**ADC GPIO Configuration
 268              		.loc 1 107 5 view .LVU80
 113:Core/Src/adc.c ****     GPIO_InitStruct.Mode = GPIO_MODE_ANALOG;
 269              		.loc 1 113 5 view .LVU81
 113:Core/Src/adc.c ****     GPIO_InitStruct.Mode = GPIO_MODE_ANALOG;
 270              		.loc 1 113 25 is_stmt 0 view .LVU82
 271 0042 3823     		movs	r3, #56
 272 0044 0393     		str	r3, [sp, #12]
 114:Core/Src/adc.c ****     GPIO_InitStruct.Pull = GPIO_NOPULL;
 273              		.loc 1 114 5 is_stmt 1 view .LVU83
 114:Core/Src/adc.c ****     GPIO_InitStruct.Pull = GPIO_NOPULL;
 274              		.loc 1 114 26 is_stmt 0 view .LVU84
 275 0046 353B     		subs	r3, r3, #53
 276 0048 0493     		str	r3, [sp, #16]
 115:Core/Src/adc.c ****     HAL_GPIO_Init(GPIOA, &GPIO_InitStruct);
 277              		.loc 1 115 5 is_stmt 1 view .LVU85
 116:Core/Src/adc.c **** 
 278              		.loc 1 116 5 view .LVU86
 279 004a 9020     		movs	r0, #144
 280 004c 03A9     		add	r1, sp, #12
 281 004e C005     		lsls	r0, r0, #23
 282 0050 FFF7FEFF 		bl	HAL_GPIO_Init
 283              	.LVL14:
 284              		.loc 1 122 1 is_stmt 0 view .LVU87
 285 0054 E0E7     		b	.L12
 286              	.L16:
 287 0056 C046     		.align	2
 288              	.L15:
 289 0058 00240140 		.word	1073816576
 290 005c 00100240 		.word	1073876992
 291              		.cfi_endproc
 292              	.LFE41:
 294              		.section	.text.HAL_ADC_MspDeInit,"ax",%progbits
 295              		.align	1
 296              		.global	HAL_ADC_MspDeInit
 297              		.syntax unified
 298              		.code	16
 299              		.thumb_func
 301              	HAL_ADC_MspDeInit:
 302              	.LVL15:
 303              	.LFB42:
 123:Core/Src/adc.c **** 
 124:Core/Src/adc.c **** void HAL_ADC_MspDeInit(ADC_HandleTypeDef* adcHandle)
 125:Core/Src/adc.c **** {
 304              		.loc 1 125 1 is_stmt 1 view -0
 305              		.cfi_startproc
 306              		@ args = 0, pretend = 0, frame = 0
 307              		@ frame_needed = 0, uses_anonymous_args = 0
 308              		.loc 1 125 1 is_stmt 0 view .LVU89
 309 0000 10B5     		push	{r4, lr}
 310              		.cfi_def_cfa_offset 8
 311              		.cfi_offset 4, -8
 312              		.cfi_offset 14, -4
 126:Core/Src/adc.c **** 
 127:Core/Src/adc.c ****   if(adcHandle->Instance==ADC1)
ARM GAS  C:\Users\rosto\AppData\Local\Temp\ccGcsgmf.s 			page 9


 313              		.loc 1 127 3 is_stmt 1 view .LVU90
 314              		.loc 1 127 15 is_stmt 0 view .LVU91
 315 0002 0268     		ldr	r2, [r0]
 316              		.loc 1 127 5 view .LVU92
 317 0004 074B     		ldr	r3, .L20
 318 0006 9A42     		cmp	r2, r3
 319 0008 00D0     		beq	.L19
 320              	.LVL16:
 321              	.L17:
 128:Core/Src/adc.c ****   {
 129:Core/Src/adc.c ****   /* USER CODE BEGIN ADC1_MspDeInit 0 */
 130:Core/Src/adc.c **** 
 131:Core/Src/adc.c ****   /* USER CODE END ADC1_MspDeInit 0 */
 132:Core/Src/adc.c ****     /* Peripheral clock disable */
 133:Core/Src/adc.c ****     __HAL_RCC_ADC1_CLK_DISABLE();
 134:Core/Src/adc.c **** 
 135:Core/Src/adc.c ****     /**ADC GPIO Configuration
 136:Core/Src/adc.c ****     PA3     ------> ADC_IN3
 137:Core/Src/adc.c ****     PA4     ------> ADC_IN4
 138:Core/Src/adc.c ****     PA5     ------> ADC_IN5
 139:Core/Src/adc.c ****     */
 140:Core/Src/adc.c ****     HAL_GPIO_DeInit(GPIOA, GPIO_PIN_3|GPIO_PIN_4|GPIO_PIN_5);
 141:Core/Src/adc.c **** 
 142:Core/Src/adc.c ****   /* USER CODE BEGIN ADC1_MspDeInit 1 */
 143:Core/Src/adc.c **** 
 144:Core/Src/adc.c ****   /* USER CODE END ADC1_MspDeInit 1 */
 145:Core/Src/adc.c ****   }
 146:Core/Src/adc.c **** }
 322              		.loc 1 146 1 view .LVU93
 323              		@ sp needed
 324 000a 10BD     		pop	{r4, pc}
 325              	.LVL17:
 326              	.L19:
 133:Core/Src/adc.c **** 
 327              		.loc 1 133 5 is_stmt 1 view .LVU94
 328 000c 064A     		ldr	r2, .L20+4
 329 000e 9369     		ldr	r3, [r2, #24]
 330 0010 0649     		ldr	r1, .L20+8
 331 0012 0B40     		ands	r3, r1
 332 0014 9361     		str	r3, [r2, #24]
 140:Core/Src/adc.c **** 
 333              		.loc 1 140 5 view .LVU95
 334 0016 9020     		movs	r0, #144
 335              	.LVL18:
 140:Core/Src/adc.c **** 
 336              		.loc 1 140 5 is_stmt 0 view .LVU96
 337 0018 3821     		movs	r1, #56
 338 001a C005     		lsls	r0, r0, #23
 339 001c FFF7FEFF 		bl	HAL_GPIO_DeInit
 340              	.LVL19:
 341              		.loc 1 146 1 view .LVU97
 342 0020 F3E7     		b	.L17
 343              	.L21:
 344 0022 C046     		.align	2
 345              	.L20:
 346 0024 00240140 		.word	1073816576
 347 0028 00100240 		.word	1073876992
ARM GAS  C:\Users\rosto\AppData\Local\Temp\ccGcsgmf.s 			page 10


 348 002c FFFDFFFF 		.word	-513
 349              		.cfi_endproc
 350              	.LFE42:
 352              		.global	hadc
 353              		.section	.bss.hadc,"aw",%nobits
 354              		.align	2
 357              	hadc:
 358 0000 00000000 		.space	64
 358      00000000 
 358      00000000 
 358      00000000 
 358      00000000 
 359              		.text
 360              	.Letext0:
 361              		.file 2 "c:\\users\\rosto\\appdata\\roaming\\code\\user\\globalstorage\\bmd.stm32-for-vscode\\@xpa
 362              		.file 3 "c:\\users\\rosto\\appdata\\roaming\\code\\user\\globalstorage\\bmd.stm32-for-vscode\\@xpa
 363              		.file 4 "Drivers/CMSIS/Device/ST/STM32F0xx/Include/stm32f051x8.h"
 364              		.file 5 "Drivers/CMSIS/Device/ST/STM32F0xx/Include/stm32f0xx.h"
 365              		.file 6 "Drivers/STM32F0xx_HAL_Driver/Inc/stm32f0xx_hal_def.h"
 366              		.file 7 "Drivers/STM32F0xx_HAL_Driver/Inc/stm32f0xx_hal_gpio.h"
 367              		.file 8 "Drivers/STM32F0xx_HAL_Driver/Inc/stm32f0xx_hal_dma.h"
 368              		.file 9 "Drivers/STM32F0xx_HAL_Driver/Inc/stm32f0xx_hal_adc.h"
 369              		.file 10 "Core/Inc/adc.h"
 370              		.file 11 "Core/Inc/main.h"
 371              		.file 12 "<built-in>"
ARM GAS  C:\Users\rosto\AppData\Local\Temp\ccGcsgmf.s 			page 11

